target datalayout = "e-m:e-p270:32:32-p271:32:32-p272:64:64-i64:64-i128:128-f80:128-n8:16:32:64-S128"
target triple = "x86_64-pc-linux-gnu"

%struct.passwd = type { ptr, ptr, i32, i32, ptr, ptr, ptr }

@stderr = external global ptr, align 8
@.str.16 = private unnamed_addr constant [38 x i8] c"Can't get information about user %s.\0A\00", align 1
@.str.17 = private unnamed_addr constant [45 x i8] c"ERROR: Can't get information about user %s.\0A\00", align 1
@.str.18 = private unnamed_addr constant [29 x i8] c"ERROR: initgroups() failed.\0A\00", align 1
@.str.19 = private unnamed_addr constant [22 x i8] c"initgroups() failed.\0A\00", align 1
@.str.20 = private unnamed_addr constant [38 x i8] c"ERROR: lchown to user '%s' failed on\0A\00", align 1
@.str.21 = private unnamed_addr constant [16 x i8] c"log file '%s'.\0A\00", align 1
@.str.22 = private unnamed_addr constant [16 x i8] c"Error was '%s'\0A\00", align 1
@.str.23 = private unnamed_addr constant [62 x i8] c"lchown to user '%s' failed on log file '%s'.  Error was '%s'\0A\00", align 1
@.str.24 = private unnamed_addr constant [27 x i8] c"ERROR: setgid(%d) failed.\0A\00", align 1
@.str.25 = private unnamed_addr constant [20 x i8] c"setgid(%d) failed.\0A\00", align 1
@.str.26 = private unnamed_addr constant [27 x i8] c"ERROR: setuid(%d) failed.\0A\00", align 1
@.str.27 = private unnamed_addr constant [20 x i8] c"setuid(%d) failed.\0A\00", align 1

; Function Attrs: nounwind uwtable
define i32 @drop_privileges(ptr noundef %0, ptr noundef %1) #0 {
  %3 = alloca ptr, align 8
  %4 = alloca ptr, align 8
  %5 = alloca i32, align 4
  %6 = alloca ptr, align 8
  %7 = alloca i32, align 4
  store ptr %0, ptr %3, align 8
  store ptr %1, ptr %4, align 8
  store i32 1, ptr %5, align 4
  %8 = call i32 @geteuid() #10
  %9 = icmp eq i32 0, %8
  br i1 %9, label %10, label %104

10:                                               ; preds = %2
  %11 = load ptr, ptr %3, align 8
  %12 = icmp ne ptr null, %11
  br i1 %12, label %13, label %104

13:                                               ; preds = %10
  store ptr null, ptr %6, align 8
  %14 = load ptr, ptr %3, align 8
  %15 = call ptr @getpwnam(ptr noundef %14)
  store ptr %15, ptr %6, align 8
  %16 = icmp eq ptr %15, null
  br i1 %16, label %17, label %23

17:                                               ; preds = %13
  %18 = load ptr, ptr %3, align 8
  %19 = call i32 (i32, ptr, ...) @logg(i32 noundef 4, ptr noundef @.str.16, ptr noundef %18)
  %20 = load ptr, ptr @stderr, align 8
  %21 = load ptr, ptr %3, align 8
  %22 = call i32 (ptr, ptr, ...) @fprintf(ptr noundef %20, ptr noundef @.str.17, ptr noundef %21) #10
  br label %105

23:                                               ; preds = %13
  %24 = load ptr, ptr %3, align 8
  %25 = load ptr, ptr %6, align 8
  %26 = getelementptr inbounds %struct.passwd, ptr %25, i32 0, i32 3
  %27 = load i32, ptr %26, align 4
  %28 = call i32 @initgroups(ptr noundef %24, i32 noundef %27)
  %29 = icmp ne i32 %28, 0
  br i1 %29, label %30, label %34

30:                                               ; preds = %23
  %31 = load ptr, ptr @stderr, align 8
  %32 = call i32 (ptr, ptr, ...) @fprintf(ptr noundef %31, ptr noundef @.str.18) #10
  %33 = call i32 (i32, ptr, ...) @logg(i32 noundef 4, ptr noundef @.str.19)
  br label %105

34:                                               ; preds = %23
  %35 = load ptr, ptr %4, align 8
  %36 = icmp ne ptr null, %35
  br i1 %36, label %37, label %71

37:                                               ; preds = %34
  %38 = load ptr, ptr %4, align 8
  %39 = load ptr, ptr %6, align 8
  %40 = getelementptr inbounds %struct.passwd, ptr %39, i32 0, i32 2
  %41 = load i32, ptr %40, align 8
  %42 = load ptr, ptr %6, align 8
  %43 = getelementptr inbounds %struct.passwd, ptr %42, i32 0, i32 3
  %44 = load i32, ptr %43, align 4
  %45 = call i32 @lchown(ptr noundef %38, i32 noundef %41, i32 noundef %44) #10
  store i32 %45, ptr %7, align 4
  %46 = load i32, ptr %7, align 4
  %47 = icmp ne i32 %46, 0
  br i1 %47, label %48, label %70

48:                                               ; preds = %37
  %49 = load ptr, ptr @stderr, align 8
  %50 = load ptr, ptr %6, align 8
  %51 = getelementptr inbounds %struct.passwd, ptr %50, i32 0, i32 0
  %52 = load ptr, ptr %51, align 8
  %53 = call i32 (ptr, ptr, ...) @fprintf(ptr noundef %49, ptr noundef @.str.20, ptr noundef %52) #10
  %54 = load ptr, ptr @stderr, align 8
  %55 = load ptr, ptr %4, align 8
  %56 = call i32 (ptr, ptr, ...) @fprintf(ptr noundef %54, ptr noundef @.str.21, ptr noundef %55) #10
  %57 = load ptr, ptr @stderr, align 8
  %58 = call ptr @__errno_location() #12
  %59 = load i32, ptr %58, align 4
  %60 = call ptr @strerror(i32 noundef %59) #10
  %61 = call i32 (ptr, ptr, ...) @fprintf(ptr noundef %57, ptr noundef @.str.22, ptr noundef %60) #10
  %62 = load ptr, ptr %6, align 8
  %63 = getelementptr inbounds %struct.passwd, ptr %62, i32 0, i32 0
  %64 = load ptr, ptr %63, align 8
  %65 = load ptr, ptr %4, align 8
  %66 = call ptr @__errno_location() #12
  %67 = load i32, ptr %66, align 4
  %68 = call ptr @strerror(i32 noundef %67) #10
  %69 = call i32 (i32, ptr, ...) @logg(i32 noundef 4, ptr noundef @.str.23, ptr noundef %64, ptr noundef %65, ptr noundef %68)
  br label %105

70:                                               ; preds = %37
  br label %71

71:                                               ; preds = %70, %34
  %72 = load ptr, ptr %6, align 8
  %73 = getelementptr inbounds %struct.passwd, ptr %72, i32 0, i32 3
  %74 = load i32, ptr %73, align 4
  %75 = call i32 @setgid(i32 noundef %74) #10
  %76 = icmp ne i32 %75, 0
  br i1 %76, label %77, label %87

77:                                               ; preds = %71
  %78 = load ptr, ptr @stderr, align 8
  %79 = load ptr, ptr %6, align 8
  %80 = getelementptr inbounds %struct.passwd, ptr %79, i32 0, i32 3
  %81 = load i32, ptr %80, align 4
  %82 = call i32 (ptr, ptr, ...) @fprintf(ptr noundef %78, ptr noundef @.str.24, i32 noundef %81) #10
  %83 = load ptr, ptr %6, align 8
  %84 = getelementptr inbounds %struct.passwd, ptr %83, i32 0, i32 3
  %85 = load i32, ptr %84, align 4
  %86 = call i32 (i32, ptr, ...) @logg(i32 noundef 4, ptr noundef @.str.25, i32 noundef %85)
  br label %105

87:                                               ; preds = %71
  %88 = load ptr, ptr %6, align 8
  %89 = getelementptr inbounds %struct.passwd, ptr %88, i32 0, i32 2
  %90 = load i32, ptr %89, align 8
  %91 = call i32 @setuid(i32 noundef %90) #10
  %92 = icmp ne i32 %91, 0
  br i1 %92, label %93, label %103

93:                                               ; preds = %87
  %94 = load ptr, ptr @stderr, align 8
  %95 = load ptr, ptr %6, align 8
  %96 = getelementptr inbounds %struct.passwd, ptr %95, i32 0, i32 2
  %97 = load i32, ptr %96, align 8
  %98 = call i32 (ptr, ptr, ...) @fprintf(ptr noundef %94, ptr noundef @.str.26, i32 noundef %97) #10
  %99 = load ptr, ptr %6, align 8
  %100 = getelementptr inbounds %struct.passwd, ptr %99, i32 0, i32 2
  %101 = load i32, ptr %100, align 8
  %102 = call i32 (i32, ptr, ...) @logg(i32 noundef 4, ptr noundef @.str.27, i32 noundef %101)
  br label %105

103:                                              ; preds = %87
  br label %104

104:                                              ; preds = %103, %10, %2
  store i32 0, ptr %5, align 4
  br label %105

105:                                              ; preds = %104, %93, %77, %48, %30, %17
  %106 = load i32, ptr %5, align 4
  ret i32 %106
}