; Function Attrs: nounwind uwtable
define noundef i32 @drop_privileges(ptr noundef %0, ptr noundef %1) local_unnamed_addr #1 {
  %3 = tail call i32 @geteuid() #18
  %4 = icmp eq i32 %3, 0
  %5 = icmp ne ptr %0, null
  %or.cond = and i1 %5, %4
  br i1 %or.cond, label %6, label %61

6:                                                ; preds = %2
  %7 = tail call ptr @getpwnam(ptr noundef nonnull %0)
  %8 = icmp eq ptr %7, null
  br i1 %8, label %9, label %13

9:                                                ; preds = %6
  %10 = tail call i32 (i32, ptr, ...) @logg(i32 noundef 4, ptr noundef nonnull @.str.16, ptr noundef nonnull %0) #18
  %11 = load ptr, ptr @stderr, align 8
  %12 = tail call i32 (ptr, ptr, ...) @fprintf(ptr noundef %11, ptr noundef nonnull @.str.17, ptr noundef nonnull %0) #22
  br label %61

13:                                               ; preds = %6
  %14 = getelementptr inbounds i8, ptr %7, i64 20
  %15 = load i32, ptr %14, align 4
  %16 = tail call i32 @initgroups(ptr noundef nonnull %0, i32 noundef %15) #18
  %.not = icmp eq i32 %16, 0
  br i1 %.not, label %21, label %17

17:                                               ; preds = %13
  %18 = load ptr, ptr @stderr, align 8
  %19 = tail call i64 @fwrite(ptr nonnull @.str.18, i64 28, i64 1, ptr %18) #21
  %20 = tail call i32 (i32, ptr, ...) @logg(i32 noundef 4, ptr noundef nonnull @.str.19) #18
  br label %61

21:                                               ; preds = %13
  %.not25 = icmp eq ptr %1, null
  br i1 %.not25, label %42, label %22

22:                                               ; preds = %21
  %23 = getelementptr inbounds i8, ptr %7, i64 16
  %24 = load i32, ptr %23, align 8
  %25 = load i32, ptr %14, align 4
  %26 = tail call i32 @lchown(ptr noundef nonnull %1, i32 noundef %24, i32 noundef %25) #18
  %.not26 = icmp eq i32 %26, 0
  br i1 %.not26, label %42, label %27

27:                                               ; preds = %22
  %28 = load ptr, ptr @stderr, align 8
  %29 = load ptr, ptr %7, align 8
  %30 = tail call i32 (ptr, ptr, ...) @fprintf(ptr noundef %28, ptr noundef nonnull @.str.20, ptr noundef %29) #22
  %31 = load ptr, ptr @stderr, align 8
  %32 = tail call i32 (ptr, ptr, ...) @fprintf(ptr noundef %31, ptr noundef nonnull @.str.21, ptr noundef nonnull %1) #22
  %33 = load ptr, ptr @stderr, align 8
  %34 = tail call ptr @__errno_location() #24
  %35 = load i32, ptr %34, align 4
  %36 = tail call ptr @strerror(i32 noundef %35) #18
  %37 = tail call i32 (ptr, ptr, ...) @fprintf(ptr noundef %33, ptr noundef nonnull @.str.22, ptr noundef %36) #22
  %38 = load ptr, ptr %7, align 8
  %39 = load i32, ptr %34, align 4
  %40 = tail call ptr @strerror(i32 noundef %39) #18
  %41 = tail call i32 (i32, ptr, ...) @logg(i32 noundef 4, ptr noundef nonnull @.str.23, ptr noundef %38, ptr noundef nonnull %1, ptr noundef %40) #18
  br label %61

42:                                               ; preds = %22, %21
  %43 = load i32, ptr %14, align 4
  %44 = tail call i32 @setgid(i32 noundef %43) #18
  %.not27 = icmp eq i32 %44, 0
  br i1 %.not27, label %51, label %45

45:                                               ; preds = %42
  %46 = load ptr, ptr @stderr, align 8
  %47 = load i32, ptr %14, align 4
  %48 = tail call i32 (ptr, ptr, ...) @fprintf(ptr noundef %46, ptr noundef nonnull @.str.24, i32 noundef %47) #22
  %49 = load i32, ptr %14, align 4
  %50 = tail call i32 (i32, ptr, ...) @logg(i32 noundef 4, ptr noundef nonnull @.str.25, i32 noundef %49) #18
  br label %61

51:                                               ; preds = %42
  %52 = getelementptr inbounds i8, ptr %7, i64 16
  %53 = load i32, ptr %52, align 8
  %54 = tail call i32 @setuid(i32 noundef %53) #18
  %.not28 = icmp eq i32 %54, 0
  br i1 %.not28, label %61, label %55

55:                                               ; preds = %51
  %56 = load ptr, ptr @stderr, align 8
  %57 = load i32, ptr %52, align 8
  %58 = tail call i32 (ptr, ptr, ...) @fprintf(ptr noundef %56, ptr noundef nonnull @.str.26, i32 noundef %57) #22
  %59 = load i32, ptr %52, align 8
  %60 = tail call i32 (i32, ptr, ...) @logg(i32 noundef 4, ptr noundef nonnull @.str.27, i32 noundef %59) #18
  br label %61

61:                                               ; preds = %2, %51, %55, %45, %27, %17, %9
  %.0 = phi i32 [ 1, %9 ], [ 1, %17 ], [ 1, %27 ], [ 1, %45 ], [ 1, %55 ], [ 0, %51 ], [ 0, %2 ]
  ret i32 %.0
}